; Function Attrs: null_pointer_is_valid sspstrong uwtable
define internal i32 @dissect_s1ap_SupportedTAs_Item(ptr noundef %0, i32 noundef %1, ptr noundef %2, ptr noundef %3, i32 noundef %4) #0 {
  %6 = getelementptr inbounds nuw i8, ptr %2, i64 16
  %7 = load ptr, ptr %6, align 8
  %8 = getelementptr inbounds nuw i8, ptr %7, i64 408
  %9 = load ptr, ptr %8, align 8
  %10 = load i32, ptr @proto_s1ap, align 4
  %11 = tail call ptr @p_get_proto_data(ptr noundef %9, ptr noundef %7, i32 noundef %10, i32 noundef 0)
  %.not.i = icmp eq ptr %11, null
  br i1 %.not.i, label %12, label %s1ap_get_private_data.exit

12:                                               ; preds = %5
  %13 = load ptr, ptr %8, align 8
  %14 = tail call noalias dereferenceable_or_null(64) ptr @wmem_alloc0(ptr noundef %13, i64 noundef 64) #9
  %15 = load ptr, ptr %8, align 8
  %16 = load i32, ptr @proto_s1ap, align 4
  tail call void @p_add_proto_data(ptr noundef %15, ptr noundef %7, i32 noundef %16, i32 noundef 0, ptr noundef %14)
  br label %s1ap_get_private_data.exit

s1ap_get_private_data.exit:                       ; preds = %5, %12
  %.0.i = phi ptr [ %11, %5 ], [ %14, %12 ]
  %17 = load ptr, ptr %6, align 8
  %18 = getelementptr inbounds nuw i8, ptr %17, i64 80
  %19 = load ptr, ptr %18, align 8
  %20 = getelementptr inbounds nuw i8, ptr %19, i64 57
  %21 = load i16, ptr %20, align 1
  %22 = and i16 %21, 8
  %.not = icmp eq i16 %22, 0
  br i1 %.not, label %23, label %41

23:                                               ; preds = %s1ap_get_private_data.exit
  %24 = getelementptr inbounds nuw i8, ptr %.0.i, i64 24
  %25 = load i32, ptr %24, align 8
  %26 = icmp eq i32 %25, 0
  br i1 %26, label %27, label %41

27:                                               ; preds = %23
  %28 = getelementptr inbounds nuw i8, ptr %.0.i, i64 8
  %29 = load i32, ptr %28, align 8
  switch i32 %29, label %41 [
    i32 17, label %30
    i32 29, label %30
  ]

30:                                               ; preds = %27, %27
  %31 = getelementptr inbounds nuw i8, ptr %17, i64 408
  %32 = load ptr, ptr %31, align 8
  %33 = tail call noalias dereferenceable_or_null(16) ptr @wmem_alloc0(ptr noundef %32, i64 noundef 16) #9
  %34 = getelementptr inbounds nuw i8, ptr %.0.i, i64 32
  store ptr %33, ptr %34, align 8
  %35 = load ptr, ptr %6, align 8
  %36 = getelementptr inbounds nuw i8, ptr %35, i64 408
  %37 = load ptr, ptr %36, align 8
  %38 = tail call noalias ptr @wmem_array_new(ptr noundef %37, i64 noundef 4)
  %39 = load ptr, ptr %34, align 8
  %40 = getelementptr inbounds nuw i8, ptr %39, i64 8
  store ptr %38, ptr %40, align 8
  br label %41

41:                                               ; preds = %27, %30, %23, %s1ap_get_private_data.exit
  %42 = load i32, ptr @ett_s1ap_SupportedTAs_Item, align 4
  %43 = tail call i32 @dissect_per_sequence(ptr noundef %0, i32 noundef %1, ptr noundef %2, ptr noundef %3, i32 noundef %4, i32 noundef %42, ptr noundef nonnull @SupportedTAs_Item_sequence)
  %44 = getelementptr inbounds nuw i8, ptr %.0.i, i64 32
  store ptr null, ptr %44, align 8
  ret i32 %43
}